; Function Attrs: mustprogress uwtable
define noundef zeroext i1 @_ZN6google8protobuf2io16CodedInputStream26ReadLittleEndian32FallbackEPj(ptr noundef nonnull align 8 captures(none) dereferenceable(80) %0, ptr noundef writeonly captures(none) %1) local_unnamed_addr #4 align 2 {
  %3 = alloca [4 x i8], align 1
  call void @llvm.lifetime.start.p0(i64 4, ptr nonnull %3) #17
  %4 = getelementptr inbounds nuw i8, ptr %0, i64 8
  %5 = load ptr, ptr %4, align 8, !tbaa !14
  %6 = load ptr, ptr %0, align 8, !tbaa !15
  %7 = ptrtoint ptr %5 to i64
  %8 = ptrtoint ptr %6 to i64
  %9 = sub i64 %7, %8
  %10 = and i64 %9, 4294967292
  %.not = icmp eq i64 %10, 0
  br i1 %.not, label %.preheader, label %11

11:                                               ; preds = %2
  %12 = getelementptr inbounds nuw i8, ptr %6, i64 4
  br label %27

.preheader:                                       ; preds = %2, %19
  %.013.i = phi ptr [ %21, %19 ], [ %3, %2 ]
  %.012.i = phi i32 [ %22, %19 ], [ 4, %2 ]
  %13 = load ptr, ptr %4, align 8, !tbaa !14
  %14 = load ptr, ptr %0, align 8, !tbaa !15
  %15 = ptrtoint ptr %13 to i64
  %16 = ptrtoint ptr %14 to i64
  %17 = sub i64 %15, %16
  %18 = trunc i64 %17 to i32
  %.not.not.not.i.not = icmp sgt i32 %.012.i, %18
  br i1 %.not.not.not.i.not, label %19, label %_ZN6google8protobuf2io16CodedInputStream7ReadRawEPvi.exit.thread

19:                                               ; preds = %.preheader
  %sext.i = shl i64 %17, 32
  %20 = ashr exact i64 %sext.i, 32
  call void @llvm.memcpy.p0.p0.i64(ptr align 1 %.013.i, ptr align 1 %14, i64 %20, i1 false)
  %21 = getelementptr inbounds i8, ptr %.013.i, i64 %20
  %22 = sub nsw i32 %.012.i, %18
  %23 = getelementptr inbounds i8, ptr %14, i64 %20
  store ptr %23, ptr %0, align 8, !tbaa !15
  %24 = tail call noundef zeroext i1 @_ZN6google8protobuf2io16CodedInputStream7RefreshEv(ptr noundef nonnull align 8 dereferenceable(80) %0)
  br i1 %24, label %.preheader, label %_ZN6google8protobuf2io16CodedInputStream7ReadRawEPvi.exit, !llvm.loop !35

_ZN6google8protobuf2io16CodedInputStream7ReadRawEPvi.exit.thread: ; preds = %.preheader
  %25 = sext i32 %.012.i to i64
  call void @llvm.memcpy.p0.p0.i64(ptr align 1 %.013.i, ptr align 1 %14, i64 %25, i1 false)
  %26 = getelementptr inbounds i8, ptr %14, i64 %25
  br label %27

27:                                               ; preds = %_ZN6google8protobuf2io16CodedInputStream7ReadRawEPvi.exit.thread, %11
  %storemerge = phi ptr [ %26, %_ZN6google8protobuf2io16CodedInputStream7ReadRawEPvi.exit.thread ], [ %12, %11 ]
  %.0 = phi ptr [ %3, %_ZN6google8protobuf2io16CodedInputStream7ReadRawEPvi.exit.thread ], [ %6, %11 ]
  store ptr %storemerge, ptr %0, align 8, !tbaa !15
  %28 = load i32, ptr %.0, align 1
  store i32 %28, ptr %1, align 4
  br label %_ZN6google8protobuf2io16CodedInputStream7ReadRawEPvi.exit

_ZN6google8protobuf2io16CodedInputStream7ReadRawEPvi.exit: ; preds = %19, %27
  %.04 = phi i1 [ true, %27 ], [ false, %19 ]
  call void @llvm.lifetime.end.p0(i64 4, ptr nonnull %3) #17
  ret i1 %.04
}